target datalayout = "e-m:e-p270:32:32-p271:32:32-p272:64:64-i64:64-i128:128-f80:128-n8:16:32:64-S128"
target triple = "x86_64-pc-linux-gnu"

%struct.Hacl_Hash_Blake2b_blake2_params_s = type { i8, i8, i8, i8, i32, i64, i8, i8, ptr, ptr }

@Hacl_Hash_Blake2b_ivTable_S = internal constant [8 x i32] [i32 1779033703, i32 -1150833019, i32 1013904242, i32 -1521486534, i32 1359893119, i32 -1694144372, i32 528734635, i32 1541459225], align 16

; Function Attrs: inlinehint nounwind uwtable
define internal i32 @__uint32_identity(i32 noundef %0) #3 {
  %2 = alloca i32, align 4
  store i32 %0, ptr %2, align 4, !tbaa !8
  %3 = load i32, ptr %2, align 4, !tbaa !8
  ret i32 %3
}

; Function Attrs: inlinehint nounwind uwtable
define internal i32 @load32(ptr noundef %0) #3 {
  %2 = alloca ptr, align 8
  %3 = alloca i32, align 4
  store ptr %0, ptr %2, align 8, !tbaa !23
  call void @llvm.lifetime.start.p0(i64 4, ptr %3) #9
  %4 = load ptr, ptr %2, align 8, !tbaa !23
  call void @llvm.memcpy.p0.p0.i64(ptr align 4 %3, ptr align 1 %4, i64 4, i1 false)
  %5 = load i32, ptr %3, align 4, !tbaa !8
  call void @llvm.lifetime.end.p0(i64 4, ptr %3) #9
  ret i32 %5
}

; Function Attrs: nounwind uwtable
define hidden void @python_hashlib_Hacl_Hash_Blake2s_init(ptr noundef %0, i32 noundef %1, i32 noundef %2) #0 {
  %4 = alloca ptr, align 8
  %5 = alloca i32, align 4
  %6 = alloca i32, align 4
  %7 = alloca [8 x i8], align 1
  %8 = alloca [8 x i8], align 1
  %9 = alloca %struct.Hacl_Hash_Blake2b_blake2_params_s, align 8
  %10 = alloca [8 x i32], align 16
  %11 = alloca ptr, align 8
  %12 = alloca ptr, align 8
  %13 = alloca ptr, align 8
  %14 = alloca ptr, align 8
  %15 = alloca i32, align 4
  %16 = alloca i32, align 4
  %17 = alloca i32, align 4
  %18 = alloca i32, align 4
  %19 = alloca i32, align 4
  %20 = alloca i32, align 4
  %21 = alloca i32, align 4
  %22 = alloca i32, align 4
  %23 = alloca i32, align 4
  %24 = alloca ptr, align 8
  %25 = alloca ptr, align 8
  %26 = alloca i32, align 4
  %27 = alloca i32, align 4
  %28 = alloca i32, align 4
  %29 = alloca ptr, align 8
  %30 = alloca ptr, align 8
  %31 = alloca i32, align 4
  %32 = alloca i32, align 4
  %33 = alloca i32, align 4
  %34 = alloca i32, align 4
  %35 = alloca ptr, align 8
  %36 = alloca ptr, align 8
  %37 = alloca i32, align 4
  %38 = alloca i32, align 4
  %39 = alloca i32, align 4
  %40 = alloca ptr, align 8
  %41 = alloca ptr, align 8
  %42 = alloca i32, align 4
  %43 = alloca i32, align 4
  %44 = alloca i32, align 4
  %45 = alloca i32, align 4
  %46 = alloca i32, align 4
  %47 = alloca i32, align 4
  %48 = alloca i32, align 4
  %49 = alloca i32, align 4
  %50 = alloca i32, align 4
  %51 = alloca i32, align 4
  %52 = alloca i32, align 4
  %53 = alloca i32, align 4
  %54 = alloca i32, align 4
  %55 = alloca i32, align 4
  %56 = alloca i32, align 4
  %57 = alloca i32, align 4
  %58 = alloca i32, align 4
  %59 = alloca i32, align 4
  %60 = alloca i32, align 4
  store ptr %0, ptr %4, align 8, !tbaa !3
  store i32 %1, ptr %5, align 4, !tbaa !8
  store i32 %2, ptr %6, align 4, !tbaa !8
  call void @llvm.lifetime.start.p0(i64 8, ptr %7) #9
  call void @llvm.memset.p0.i64(ptr align 1 %7, i8 0, i64 8, i1 false)
  call void @llvm.lifetime.start.p0(i64 8, ptr %8) #9
  call void @llvm.memset.p0.i64(ptr align 1 %8, i8 0, i64 8, i1 false)
  call void @llvm.lifetime.start.p0(i64 40, ptr %9) #9
  %61 = getelementptr inbounds nuw %struct.Hacl_Hash_Blake2b_blake2_params_s, ptr %9, i32 0, i32 0
  store i8 32, ptr %61, align 8, !tbaa !10
  %62 = getelementptr inbounds nuw %struct.Hacl_Hash_Blake2b_blake2_params_s, ptr %9, i32 0, i32 1
  store i8 0, ptr %62, align 1, !tbaa !14
  %63 = getelementptr inbounds nuw %struct.Hacl_Hash_Blake2b_blake2_params_s, ptr %9, i32 0, i32 2
  store i8 1, ptr %63, align 2, !tbaa !15
  %64 = getelementptr inbounds nuw %struct.Hacl_Hash_Blake2b_blake2_params_s, ptr %9, i32 0, i32 3
  store i8 1, ptr %64, align 1, !tbaa !16
  %65 = getelementptr inbounds nuw %struct.Hacl_Hash_Blake2b_blake2_params_s, ptr %9, i32 0, i32 4
  store i32 0, ptr %65, align 4, !tbaa !17
  %66 = getelementptr inbounds nuw %struct.Hacl_Hash_Blake2b_blake2_params_s, ptr %9, i32 0, i32 5
  store i64 0, ptr %66, align 8, !tbaa !18
  %67 = getelementptr inbounds nuw %struct.Hacl_Hash_Blake2b_blake2_params_s, ptr %9, i32 0, i32 6
  store i8 0, ptr %67, align 8, !tbaa !19
  %68 = getelementptr inbounds nuw %struct.Hacl_Hash_Blake2b_blake2_params_s, ptr %9, i32 0, i32 7
  store i8 0, ptr %68, align 1, !tbaa !20
  %69 = getelementptr i8, ptr %9, i64 18
  call void @llvm.memset.p0.i64(ptr align 2 %69, i8 0, i64 6, i1 false)
  %70 = getelementptr inbounds nuw %struct.Hacl_Hash_Blake2b_blake2_params_s, ptr %9, i32 0, i32 8
  %71 = getelementptr inbounds [8 x i8], ptr %7, i64 0, i64 0
  store ptr %71, ptr %70, align 8, !tbaa !21
  %72 = getelementptr inbounds nuw %struct.Hacl_Hash_Blake2b_blake2_params_s, ptr %9, i32 0, i32 9
  %73 = getelementptr inbounds [8 x i8], ptr %8, i64 0, i64 0
  store ptr %73, ptr %72, align 8, !tbaa !22
  call void @llvm.lifetime.start.p0(i64 32, ptr %10) #9
  call void @llvm.memset.p0.i64(ptr align 16 %10, i8 0, i64 32, i1 false)
  call void @llvm.lifetime.start.p0(i64 8, ptr %11) #9
  %74 = load ptr, ptr %4, align 8, !tbaa !3
  store ptr %74, ptr %11, align 8, !tbaa !3
  call void @llvm.lifetime.start.p0(i64 8, ptr %12) #9
  %75 = load ptr, ptr %4, align 8, !tbaa !3
  %76 = getelementptr i32, ptr %75, i64 4
  store ptr %76, ptr %12, align 8, !tbaa !3
  call void @llvm.lifetime.start.p0(i64 8, ptr %13) #9
  %77 = load ptr, ptr %4, align 8, !tbaa !3
  %78 = getelementptr i32, ptr %77, i64 8
  store ptr %78, ptr %13, align 8, !tbaa !3
  call void @llvm.lifetime.start.p0(i64 8, ptr %14) #9
  %79 = load ptr, ptr %4, align 8, !tbaa !3
  %80 = getelementptr i32, ptr %79, i64 12
  store ptr %80, ptr %14, align 8, !tbaa !3
  call void @llvm.lifetime.start.p0(i64 4, ptr %15) #9
  %81 = load i32, ptr @Hacl_Hash_Blake2b_ivTable_S, align 16, !tbaa !8
  store i32 %81, ptr %15, align 4, !tbaa !8
  call void @llvm.lifetime.start.p0(i64 4, ptr %16) #9
  %82 = load i32, ptr getelementptr ([8 x i32], ptr @Hacl_Hash_Blake2b_ivTable_S, i64 0, i64 1), align 4, !tbaa !8
  store i32 %82, ptr %16, align 4, !tbaa !8
  call void @llvm.lifetime.start.p0(i64 4, ptr %17) #9
  %83 = load i32, ptr getelementptr ([8 x i32], ptr @Hacl_Hash_Blake2b_ivTable_S, i64 0, i64 2), align 8, !tbaa !8
  store i32 %83, ptr %17, align 4, !tbaa !8
  call void @llvm.lifetime.start.p0(i64 4, ptr %18) #9
  %84 = load i32, ptr getelementptr ([8 x i32], ptr @Hacl_Hash_Blake2b_ivTable_S, i64 0, i64 3), align 4, !tbaa !8
  store i32 %84, ptr %18, align 4, !tbaa !8
  call void @llvm.lifetime.start.p0(i64 4, ptr %19) #9
  %85 = load i32, ptr getelementptr ([8 x i32], ptr @Hacl_Hash_Blake2b_ivTable_S, i64 0, i64 4), align 16, !tbaa !8
  store i32 %85, ptr %19, align 4, !tbaa !8
  call void @llvm.lifetime.start.p0(i64 4, ptr %20) #9
  %86 = load i32, ptr getelementptr ([8 x i32], ptr @Hacl_Hash_Blake2b_ivTable_S, i64 0, i64 5), align 4, !tbaa !8
  store i32 %86, ptr %20, align 4, !tbaa !8
  call void @llvm.lifetime.start.p0(i64 4, ptr %21) #9
  %87 = load i32, ptr getelementptr ([8 x i32], ptr @Hacl_Hash_Blake2b_ivTable_S, i64 0, i64 6), align 8, !tbaa !8
  store i32 %87, ptr %21, align 4, !tbaa !8
  call void @llvm.lifetime.start.p0(i64 4, ptr %22) #9
  %88 = load i32, ptr getelementptr ([8 x i32], ptr @Hacl_Hash_Blake2b_ivTable_S, i64 0, i64 7), align 4, !tbaa !8
  store i32 %88, ptr %22, align 4, !tbaa !8
  %89 = load i32, ptr %15, align 4, !tbaa !8
  %90 = load ptr, ptr %13, align 8, !tbaa !3
  %91 = getelementptr i32, ptr %90, i64 0
  store i32 %89, ptr %91, align 4, !tbaa !8
  %92 = load i32, ptr %16, align 4, !tbaa !8
  %93 = load ptr, ptr %13, align 8, !tbaa !3
  %94 = getelementptr i32, ptr %93, i64 1
  store i32 %92, ptr %94, align 4, !tbaa !8
  %95 = load i32, ptr %17, align 4, !tbaa !8
  %96 = load ptr, ptr %13, align 8, !tbaa !3
  %97 = getelementptr i32, ptr %96, i64 2
  store i32 %95, ptr %97, align 4, !tbaa !8
  %98 = load i32, ptr %18, align 4, !tbaa !8
  %99 = load ptr, ptr %13, align 8, !tbaa !3
  %100 = getelementptr i32, ptr %99, i64 3
  store i32 %98, ptr %100, align 4, !tbaa !8
  %101 = load i32, ptr %19, align 4, !tbaa !8
  %102 = load ptr, ptr %14, align 8, !tbaa !3
  %103 = getelementptr i32, ptr %102, i64 0
  store i32 %101, ptr %103, align 4, !tbaa !8
  %104 = load i32, ptr %20, align 4, !tbaa !8
  %105 = load ptr, ptr %14, align 8, !tbaa !3
  %106 = getelementptr i32, ptr %105, i64 1
  store i32 %104, ptr %106, align 4, !tbaa !8
  %107 = load i32, ptr %21, align 4, !tbaa !8
  %108 = load ptr, ptr %14, align 8, !tbaa !3
  %109 = getelementptr i32, ptr %108, i64 2
  store i32 %107, ptr %109, align 4, !tbaa !8
  %110 = load i32, ptr %22, align 4, !tbaa !8
  %111 = load ptr, ptr %14, align 8, !tbaa !3
  %112 = getelementptr i32, ptr %111, i64 3
  store i32 %110, ptr %112, align 4, !tbaa !8
  br label %113

113:                                              ; preds = %3
  call void @llvm.lifetime.start.p0(i64 4, ptr %23) #9
  store i32 0, ptr %23, align 4, !tbaa !8
  call void @llvm.lifetime.start.p0(i64 8, ptr %24) #9
  %114 = getelementptr inbounds [8 x i32], ptr %10, i64 0, i64 0
  %115 = getelementptr i32, ptr %114, i64 4
  store ptr %115, ptr %24, align 8, !tbaa !3
  call void @llvm.lifetime.start.p0(i64 8, ptr %25) #9
  %116 = getelementptr inbounds nuw %struct.Hacl_Hash_Blake2b_blake2_params_s, ptr %9, i32 0, i32 8
  %117 = load ptr, ptr %116, align 8, !tbaa !21
  %118 = load i32, ptr %23, align 4, !tbaa !8
  %119 = mul i32 %118, 4
  %120 = zext i32 %119 to i64
  %121 = getelementptr i8, ptr %117, i64 %120
  store ptr %121, ptr %25, align 8, !tbaa !23
  call void @llvm.lifetime.start.p0(i64 4, ptr %26) #9
  %122 = load ptr, ptr %25, align 8, !tbaa !23
  %123 = call i32 @load32(ptr noundef %122)
  %124 = call i32 @__uint32_identity(i32 noundef %123)
  store i32 %124, ptr %26, align 4, !tbaa !8
  call void @llvm.lifetime.start.p0(i64 4, ptr %27) #9
  %125 = load i32, ptr %26, align 4, !tbaa !8
  store i32 %125, ptr %27, align 4, !tbaa !8
  call void @llvm.lifetime.start.p0(i64 4, ptr %28) #9
  %126 = load i32, ptr %27, align 4, !tbaa !8
  store i32 %126, ptr %28, align 4, !tbaa !8
  %127 = load i32, ptr %28, align 4, !tbaa !8
  %128 = load ptr, ptr %24, align 8, !tbaa !3
  %129 = load i32, ptr %23, align 4, !tbaa !8
  %130 = zext i32 %129 to i64
  %131 = getelementptr i32, ptr %128, i64 %130
  store i32 %127, ptr %131, align 4, !tbaa !8
  %132 = load i32, ptr %23, align 4, !tbaa !8
  %133 = add i32 %132, 1
  store i32 %133, ptr %23, align 4, !tbaa !8
  call void @llvm.lifetime.end.p0(i64 4, ptr %28) #9
  call void @llvm.lifetime.end.p0(i64 4, ptr %27) #9
  call void @llvm.lifetime.end.p0(i64 4, ptr %26) #9
  call void @llvm.lifetime.end.p0(i64 8, ptr %25) #9
  call void @llvm.lifetime.end.p0(i64 8, ptr %24) #9
  call void @llvm.lifetime.start.p0(i64 8, ptr %29) #9
  %134 = getelementptr inbounds [8 x i32], ptr %10, i64 0, i64 0
  %135 = getelementptr i32, ptr %134, i64 4
  store ptr %135, ptr %29, align 8, !tbaa !3
  call void @llvm.lifetime.start.p0(i64 8, ptr %30) #9
  %136 = getelementptr inbounds nuw %struct.Hacl_Hash_Blake2b_blake2_params_s, ptr %9, i32 0, i32 8
  %137 = load ptr, ptr %136, align 8, !tbaa !21
  %138 = load i32, ptr %23, align 4, !tbaa !8
  %139 = mul i32 %138, 4
  %140 = zext i32 %139 to i64
  %141 = getelementptr i8, ptr %137, i64 %140
  store ptr %141, ptr %30, align 8, !tbaa !23
  call void @llvm.lifetime.start.p0(i64 4, ptr %31) #9
  %142 = load ptr, ptr %30, align 8, !tbaa !23
  %143 = call i32 @load32(ptr noundef %142)
  %144 = call i32 @__uint32_identity(i32 noundef %143)
  store i32 %144, ptr %31, align 4, !tbaa !8
  call void @llvm.lifetime.start.p0(i64 4, ptr %32) #9
  %145 = load i32, ptr %31, align 4, !tbaa !8
  store i32 %145, ptr %32, align 4, !tbaa !8
  call void @llvm.lifetime.start.p0(i64 4, ptr %33) #9
  %146 = load i32, ptr %32, align 4, !tbaa !8
  store i32 %146, ptr %33, align 4, !tbaa !8
  %147 = load i32, ptr %33, align 4, !tbaa !8
  %148 = load ptr, ptr %29, align 8, !tbaa !3
  %149 = load i32, ptr %23, align 4, !tbaa !8
  %150 = zext i32 %149 to i64
  %151 = getelementptr i32, ptr %148, i64 %150
  store i32 %147, ptr %151, align 4, !tbaa !8
  %152 = load i32, ptr %23, align 4, !tbaa !8
  %153 = add i32 %152, 1
  store i32 %153, ptr %23, align 4, !tbaa !8
  call void @llvm.lifetime.end.p0(i64 4, ptr %33) #9
  call void @llvm.lifetime.end.p0(i64 4, ptr %32) #9
  call void @llvm.lifetime.end.p0(i64 4, ptr %31) #9
  call void @llvm.lifetime.end.p0(i64 8, ptr %30) #9
  call void @llvm.lifetime.end.p0(i64 8, ptr %29) #9
  call void @llvm.lifetime.end.p0(i64 4, ptr %23) #9
  br label %154

154:                                              ; preds = %113
  br label %155

155:                                              ; preds = %154
  br label %156

156:                                              ; preds = %155
  call void @llvm.lifetime.start.p0(i64 4, ptr %34) #9
  store i32 0, ptr %34, align 4, !tbaa !8
  call void @llvm.lifetime.start.p0(i64 8, ptr %35) #9
  %157 = getelementptr inbounds [8 x i32], ptr %10, i64 0, i64 0
  %158 = getelementptr i32, ptr %157, i64 6
  store ptr %158, ptr %35, align 8, !tbaa !3
  call void @llvm.lifetime.start.p0(i64 8, ptr %36) #9
  %159 = getelementptr inbounds nuw %struct.Hacl_Hash_Blake2b_blake2_params_s, ptr %9, i32 0, i32 9
  %160 = load ptr, ptr %159, align 8, !tbaa !22
  %161 = load i32, ptr %34, align 4, !tbaa !8
  %162 = mul i32 %161, 4
  %163 = zext i32 %162 to i64
  %164 = getelementptr i8, ptr %160, i64 %163
  store ptr %164, ptr %36, align 8, !tbaa !23
  call void @llvm.lifetime.start.p0(i64 4, ptr %37) #9
  %165 = load ptr, ptr %36, align 8, !tbaa !23
  %166 = call i32 @load32(ptr noundef %165)
  %167 = call i32 @__uint32_identity(i32 noundef %166)
  store i32 %167, ptr %37, align 4, !tbaa !8
  call void @llvm.lifetime.start.p0(i64 4, ptr %38) #9
  %168 = load i32, ptr %37, align 4, !tbaa !8
  store i32 %168, ptr %38, align 4, !tbaa !8
  call void @llvm.lifetime.start.p0(i64 4, ptr %39) #9
  %169 = load i32, ptr %38, align 4, !tbaa !8
  store i32 %169, ptr %39, align 4, !tbaa !8
  %170 = load i32, ptr %39, align 4, !tbaa !8
  %171 = load ptr, ptr %35, align 8, !tbaa !3
  %172 = load i32, ptr %34, align 4, !tbaa !8
  %173 = zext i32 %172 to i64
  %174 = getelementptr i32, ptr %171, i64 %173
  store i32 %170, ptr %174, align 4, !tbaa !8
  %175 = load i32, ptr %34, align 4, !tbaa !8
  %176 = add i32 %175, 1
  store i32 %176, ptr %34, align 4, !tbaa !8
  call void @llvm.lifetime.end.p0(i64 4, ptr %39) #9
  call void @llvm.lifetime.end.p0(i64 4, ptr %38) #9
  call void @llvm.lifetime.end.p0(i64 4, ptr %37) #9
  call void @llvm.lifetime.end.p0(i64 8, ptr %36) #9
  call void @llvm.lifetime.end.p0(i64 8, ptr %35) #9
  call void @llvm.lifetime.start.p0(i64 8, ptr %40) #9
  %177 = getelementptr inbounds [8 x i32], ptr %10, i64 0, i64 0
  %178 = getelementptr i32, ptr %177, i64 6
  store ptr %178, ptr %40, align 8, !tbaa !3
  call void @llvm.lifetime.start.p0(i64 8, ptr %41) #9
  %179 = getelementptr inbounds nuw %struct.Hacl_Hash_Blake2b_blake2_params_s, ptr %9, i32 0, i32 9
  %180 = load ptr, ptr %179, align 8, !tbaa !22
  %181 = load i32, ptr %34, align 4, !tbaa !8
  %182 = mul i32 %181, 4
  %183 = zext i32 %182 to i64
  %184 = getelementptr i8, ptr %180, i64 %183
  store ptr %184, ptr %41, align 8, !tbaa !23
  call void @llvm.lifetime.start.p0(i64 4, ptr %42) #9
  %185 = load ptr, ptr %41, align 8, !tbaa !23
  %186 = call i32 @load32(ptr noundef %185)
  %187 = call i32 @__uint32_identity(i32 noundef %186)
  store i32 %187, ptr %42, align 4, !tbaa !8
  call void @llvm.lifetime.start.p0(i64 4, ptr %43) #9
  %188 = load i32, ptr %42, align 4, !tbaa !8
  store i32 %188, ptr %43, align 4, !tbaa !8
  call void @llvm.lifetime.start.p0(i64 4, ptr %44) #9
  %189 = load i32, ptr %43, align 4, !tbaa !8
  store i32 %189, ptr %44, align 4, !tbaa !8
  %190 = load i32, ptr %44, align 4, !tbaa !8
  %191 = load ptr, ptr %40, align 8, !tbaa !3
  %192 = load i32, ptr %34, align 4, !tbaa !8
  %193 = zext i32 %192 to i64
  %194 = getelementptr i32, ptr %191, i64 %193
  store i32 %190, ptr %194, align 4, !tbaa !8
  %195 = load i32, ptr %34, align 4, !tbaa !8
  %196 = add i32 %195, 1
  store i32 %196, ptr %34, align 4, !tbaa !8
  call void @llvm.lifetime.end.p0(i64 4, ptr %44) #9
  call void @llvm.lifetime.end.p0(i64 4, ptr %43) #9
  call void @llvm.lifetime.end.p0(i64 4, ptr %42) #9
  call void @llvm.lifetime.end.p0(i64 8, ptr %41) #9
  call void @llvm.lifetime.end.p0(i64 8, ptr %40) #9
  call void @llvm.lifetime.end.p0(i64 4, ptr %34) #9
  br label %197

197:                                              ; preds = %156
  br label %198

198:                                              ; preds = %197
  %199 = load i32, ptr %6, align 4, !tbaa !8
  %200 = trunc i32 %199 to i8
  %201 = zext i8 %200 to i32
  %202 = load i32, ptr %5, align 4, !tbaa !8
  %203 = trunc i32 %202 to i8
  %204 = zext i8 %203 to i32
  %205 = shl i32 %204, 8
  %206 = getelementptr inbounds nuw %struct.Hacl_Hash_Blake2b_blake2_params_s, ptr %9, i32 0, i32 2
  %207 = load i8, ptr %206, align 2, !tbaa !15
  %208 = zext i8 %207 to i32
  %209 = shl i32 %208, 16
  %210 = getelementptr inbounds nuw %struct.Hacl_Hash_Blake2b_blake2_params_s, ptr %9, i32 0, i32 3
  %211 = load i8, ptr %210, align 1, !tbaa !16
  %212 = zext i8 %211 to i32
  %213 = shl i32 %212, 24
  %214 = xor i32 %209, %213
  %215 = xor i32 %205, %214
  %216 = xor i32 %201, %215
  %217 = getelementptr [8 x i32], ptr %10, i64 0, i64 0
  store i32 %216, ptr %217, align 16, !tbaa !8
  %218 = getelementptr inbounds nuw %struct.Hacl_Hash_Blake2b_blake2_params_s, ptr %9, i32 0, i32 4
  %219 = load i32, ptr %218, align 4, !tbaa !17
  %220 = getelementptr [8 x i32], ptr %10, i64 0, i64 1
  store i32 %219, ptr %220, align 4, !tbaa !8
  %221 = getelementptr inbounds nuw %struct.Hacl_Hash_Blake2b_blake2_params_s, ptr %9, i32 0, i32 5
  %222 = load i64, ptr %221, align 8, !tbaa !18
  %223 = trunc i64 %222 to i32
  %224 = getelementptr [8 x i32], ptr %10, i64 0, i64 2
  store i32 %223, ptr %224, align 8, !tbaa !8
  %225 = getelementptr inbounds nuw %struct.Hacl_Hash_Blake2b_blake2_params_s, ptr %9, i32 0, i32 5
  %226 = load i64, ptr %225, align 8, !tbaa !18
  %227 = lshr i64 %226, 32
  %228 = trunc i64 %227 to i32
  %229 = getelementptr inbounds nuw %struct.Hacl_Hash_Blake2b_blake2_params_s, ptr %9, i32 0, i32 6
  %230 = load i8, ptr %229, align 8, !tbaa !19
  %231 = zext i8 %230 to i32
  %232 = shl i32 %231, 16
  %233 = getelementptr inbounds nuw %struct.Hacl_Hash_Blake2b_blake2_params_s, ptr %9, i32 0, i32 7
  %234 = load i8, ptr %233, align 1, !tbaa !20
  %235 = zext i8 %234 to i32
  %236 = shl i32 %235, 24
  %237 = xor i32 %232, %236
  %238 = xor i32 %228, %237
  %239 = getelementptr [8 x i32], ptr %10, i64 0, i64 3
  store i32 %238, ptr %239, align 4, !tbaa !8
  call void @llvm.lifetime.start.p0(i64 4, ptr %45) #9
  %240 = getelementptr [8 x i32], ptr %10, i64 0, i64 0
  %241 = load i32, ptr %240, align 16, !tbaa !8
  store i32 %241, ptr %45, align 4, !tbaa !8
  call void @llvm.lifetime.start.p0(i64 4, ptr %46) #9
  %242 = getelementptr [8 x i32], ptr %10, i64 0, i64 1
  %243 = load i32, ptr %242, align 4, !tbaa !8
  store i32 %243, ptr %46, align 4, !tbaa !8
  call void @llvm.lifetime.start.p0(i64 4, ptr %47) #9
  %244 = getelementptr [8 x i32], ptr %10, i64 0, i64 2
  %245 = load i32, ptr %244, align 8, !tbaa !8
  store i32 %245, ptr %47, align 4, !tbaa !8
  call void @llvm.lifetime.start.p0(i64 4, ptr %48) #9
  %246 = getelementptr [8 x i32], ptr %10, i64 0, i64 3
  %247 = load i32, ptr %246, align 4, !tbaa !8
  store i32 %247, ptr %48, align 4, !tbaa !8
  call void @llvm.lifetime.start.p0(i64 4, ptr %49) #9
  %248 = getelementptr [8 x i32], ptr %10, i64 0, i64 4
  %249 = load i32, ptr %248, align 16, !tbaa !8
  store i32 %249, ptr %49, align 4, !tbaa !8
  call void @llvm.lifetime.start.p0(i64 4, ptr %50) #9
  %250 = getelementptr [8 x i32], ptr %10, i64 0, i64 5
  %251 = load i32, ptr %250, align 4, !tbaa !8
  store i32 %251, ptr %50, align 4, !tbaa !8
  call void @llvm.lifetime.start.p0(i64 4, ptr %51) #9
  %252 = getelementptr [8 x i32], ptr %10, i64 0, i64 6
  %253 = load i32, ptr %252, align 8, !tbaa !8
  store i32 %253, ptr %51, align 4, !tbaa !8
  call void @llvm.lifetime.start.p0(i64 4, ptr %52) #9
  %254 = getelementptr [8 x i32], ptr %10, i64 0, i64 7
  %255 = load i32, ptr %254, align 4, !tbaa !8
  store i32 %255, ptr %52, align 4, !tbaa !8
  call void @llvm.lifetime.start.p0(i64 4, ptr %53) #9
  %256 = load i32, ptr %15, align 4, !tbaa !8
  %257 = load i32, ptr %45, align 4, !tbaa !8
  %258 = xor i32 %256, %257
  store i32 %258, ptr %53, align 4, !tbaa !8
  call void @llvm.lifetime.start.p0(i64 4, ptr %54) #9
  %259 = load i32, ptr %16, align 4, !tbaa !8
  %260 = load i32, ptr %46, align 4, !tbaa !8
  %261 = xor i32 %259, %260
  store i32 %261, ptr %54, align 4, !tbaa !8
  call void @llvm.lifetime.start.p0(i64 4, ptr %55) #9
  %262 = load i32, ptr %17, align 4, !tbaa !8
  %263 = load i32, ptr %47, align 4, !tbaa !8
  %264 = xor i32 %262, %263
  store i32 %264, ptr %55, align 4, !tbaa !8
  call void @llvm.lifetime.start.p0(i64 4, ptr %56) #9
  %265 = load i32, ptr %18, align 4, !tbaa !8
  %266 = load i32, ptr %48, align 4, !tbaa !8
  %267 = xor i32 %265, %266
  store i32 %267, ptr %56, align 4, !tbaa !8
  call void @llvm.lifetime.start.p0(i64 4, ptr %57) #9
  %268 = load i32, ptr %19, align 4, !tbaa !8
  %269 = load i32, ptr %49, align 4, !tbaa !8
  %270 = xor i32 %268, %269
  store i32 %270, ptr %57, align 4, !tbaa !8
  call void @llvm.lifetime.start.p0(i64 4, ptr %58) #9
  %271 = load i32, ptr %20, align 4, !tbaa !8
  %272 = load i32, ptr %50, align 4, !tbaa !8
  %273 = xor i32 %271, %272
  store i32 %273, ptr %58, align 4, !tbaa !8
  call void @llvm.lifetime.start.p0(i64 4, ptr %59) #9
  %274 = load i32, ptr %21, align 4, !tbaa !8
  %275 = load i32, ptr %51, align 4, !tbaa !8
  %276 = xor i32 %274, %275
  store i32 %276, ptr %59, align 4, !tbaa !8
  call void @llvm.lifetime.start.p0(i64 4, ptr %60) #9
  %277 = load i32, ptr %22, align 4, !tbaa !8
  %278 = load i32, ptr %52, align 4, !tbaa !8
  %279 = xor i32 %277, %278
  store i32 %279, ptr %60, align 4, !tbaa !8
  %280 = load i32, ptr %53, align 4, !tbaa !8
  %281 = load ptr, ptr %11, align 8, !tbaa !3
  %282 = getelementptr i32, ptr %281, i64 0
  store i32 %280, ptr %282, align 4, !tbaa !8
  %283 = load i32, ptr %54, align 4, !tbaa !8
  %284 = load ptr, ptr %11, align 8, !tbaa !3
  %285 = getelementptr i32, ptr %284, i64 1
  store i32 %283, ptr %285, align 4, !tbaa !8
  %286 = load i32, ptr %55, align 4, !tbaa !8
  %287 = load ptr, ptr %11, align 8, !tbaa !3
  %288 = getelementptr i32, ptr %287, i64 2
  store i32 %286, ptr %288, align 4, !tbaa !8
  %289 = load i32, ptr %56, align 4, !tbaa !8
  %290 = load ptr, ptr %11, align 8, !tbaa !3
  %291 = getelementptr i32, ptr %290, i64 3
  store i32 %289, ptr %291, align 4, !tbaa !8
  %292 = load i32, ptr %57, align 4, !tbaa !8
  %293 = load ptr, ptr %12, align 8, !tbaa !3
  %294 = getelementptr i32, ptr %293, i64 0
  store i32 %292, ptr %294, align 4, !tbaa !8
  %295 = load i32, ptr %58, align 4, !tbaa !8
  %296 = load ptr, ptr %12, align 8, !tbaa !3
  %297 = getelementptr i32, ptr %296, i64 1
  store i32 %295, ptr %297, align 4, !tbaa !8
  %298 = load i32, ptr %59, align 4, !tbaa !8
  %299 = load ptr, ptr %12, align 8, !tbaa !3
  %300 = getelementptr i32, ptr %299, i64 2
  store i32 %298, ptr %300, align 4, !tbaa !8
  %301 = load i32, ptr %60, align 4, !tbaa !8
  %302 = load ptr, ptr %12, align 8, !tbaa !3
  %303 = getelementptr i32, ptr %302, i64 3
  store i32 %301, ptr %303, align 4, !tbaa !8
  call void @llvm.lifetime.end.p0(i64 4, ptr %60) #9
  call void @llvm.lifetime.end.p0(i64 4, ptr %59) #9
  call void @llvm.lifetime.end.p0(i64 4, ptr %58) #9
  call void @llvm.lifetime.end.p0(i64 4, ptr %57) #9
  call void @llvm.lifetime.end.p0(i64 4, ptr %56) #9
  call void @llvm.lifetime.end.p0(i64 4, ptr %55) #9
  call void @llvm.lifetime.end.p0(i64 4, ptr %54) #9
  call void @llvm.lifetime.end.p0(i64 4, ptr %53) #9
  call void @llvm.lifetime.end.p0(i64 4, ptr %52) #9
  call void @llvm.lifetime.end.p0(i64 4, ptr %51) #9
  call void @llvm.lifetime.end.p0(i64 4, ptr %50) #9
  call void @llvm.lifetime.end.p0(i64 4, ptr %49) #9
  call void @llvm.lifetime.end.p0(i64 4, ptr %48) #9
  call void @llvm.lifetime.end.p0(i64 4, ptr %47) #9
  call void @llvm.lifetime.end.p0(i64 4, ptr %46) #9
  call void @llvm.lifetime.end.p0(i64 4, ptr %45) #9
  call void @llvm.lifetime.end.p0(i64 4, ptr %22) #9
  call void @llvm.lifetime.end.p0(i64 4, ptr %21) #9
  call void @llvm.lifetime.end.p0(i64 4, ptr %20) #9
  call void @llvm.lifetime.end.p0(i64 4, ptr %19) #9
  call void @llvm.lifetime.end.p0(i64 4, ptr %18) #9
  call void @llvm.lifetime.end.p0(i64 4, ptr %17) #9
  call void @llvm.lifetime.end.p0(i64 4, ptr %16) #9
  call void @llvm.lifetime.end.p0(i64 4, ptr %15) #9
  call void @llvm.lifetime.end.p0(i64 8, ptr %14) #9
  call void @llvm.lifetime.end.p0(i64 8, ptr %13) #9
  call void @llvm.lifetime.end.p0(i64 8, ptr %12) #9
  call void @llvm.lifetime.end.p0(i64 8, ptr %11) #9
  call void @llvm.lifetime.end.p0(i64 32, ptr %10) #9
  call void @llvm.lifetime.end.p0(i64 40, ptr %9) #9
  call void @llvm.lifetime.end.p0(i64 8, ptr %8) #9
  call void @llvm.lifetime.end.p0(i64 8, ptr %7) #9
  ret void
}