; Function Attrs: mustprogress nofree norecurse nosync nounwind willreturn memory(argmem: write) uwtable
define hidden void @python_hashlib_Hacl_Hash_Blake2s_init(ptr noundef writeonly captures(none) initializes((0, 64)) %0, i32 noundef %1, i32 noundef %2) local_unnamed_addr #0 {
  %4 = getelementptr i8, ptr %0, i64 16
  %5 = getelementptr i8, ptr %0, i64 32
  %6 = getelementptr i8, ptr %0, i64 48
  store i32 1779033703, ptr %5, align 4, !tbaa !3
  %7 = getelementptr i8, ptr %0, i64 36
  store i32 -1150833019, ptr %7, align 4, !tbaa !3
  %8 = getelementptr i8, ptr %0, i64 40
  store i32 1013904242, ptr %8, align 4, !tbaa !3
  %9 = getelementptr i8, ptr %0, i64 44
  store i32 -1521486534, ptr %9, align 4, !tbaa !3
  store i32 1359893119, ptr %6, align 4, !tbaa !3
  %10 = getelementptr i8, ptr %0, i64 52
  store i32 -1694144372, ptr %10, align 4, !tbaa !3
  %11 = getelementptr i8, ptr %0, i64 56
  store i32 528734635, ptr %11, align 4, !tbaa !3
  %12 = getelementptr i8, ptr %0, i64 60
  store i32 1541459225, ptr %12, align 4, !tbaa !3
  %13 = and i32 %2, 255
  %14 = shl i32 %1, 8
  %15 = and i32 %14, 65280
  %16 = or disjoint i32 %15, %13
  %17 = xor i32 %16, 1795745383
  store i32 %17, ptr %0, align 4, !tbaa !3
  %18 = getelementptr i8, ptr %0, i64 4
  store i32 -1150833019, ptr %18, align 4, !tbaa !3
  %19 = getelementptr i8, ptr %0, i64 8
  store i32 1013904242, ptr %19, align 4, !tbaa !3
  %20 = getelementptr i8, ptr %0, i64 12
  store i32 -1521486534, ptr %20, align 4, !tbaa !3
  store i32 1359893119, ptr %4, align 4, !tbaa !3
  %21 = getelementptr i8, ptr %0, i64 20
  store i32 -1694144372, ptr %21, align 4, !tbaa !3
  %22 = getelementptr i8, ptr %0, i64 24
  store i32 528734635, ptr %22, align 4, !tbaa !3
  %23 = getelementptr i8, ptr %0, i64 28
  store i32 1541459225, ptr %23, align 4, !tbaa !3
  ret void
}